; Function Attrs: mustprogress nounwind uwtable
define dso_local void @_ZN3net22QuicSentEntropyManagerD2Ev(ptr nocapture noundef nonnull align 8 dereferenceable(128) %this) unnamed_addr #1 align 2 personality ptr @__gxx_personality_v0 {
entry:
  store ptr getelementptr inbounds ({ [4 x ptr] }, ptr @_ZTVN3net22QuicSentEntropyManagerE, i64 0, i32 0, i64 2), ptr %this, align 8
  %packets_entropy_ = getelementptr inbounds i8, ptr %this, i64 8
  %0 = load ptr, ptr %packets_entropy_, align 8
  %tobool.not.i.i = icmp eq ptr %0, null
  br i1 %tobool.not.i.i, label %_ZNSt5dequeIhSaIhEED2Ev.exit, label %if.then.i.i

if.then.i.i:                                      ; preds = %entry
  %_M_node5.i.i6.i = getelementptr inbounds i8, ptr %this, i64 80
  %_M_node5.i.i.i = getelementptr inbounds i8, ptr %this, i64 48
  %1 = load ptr, ptr %_M_node5.i.i.i, align 8
  %2 = load ptr, ptr %_M_node5.i.i6.i, align 8
  %add.ptr.i.i = getelementptr inbounds i8, ptr %2, i64 8
  %cmp3.i.i.i = icmp ult ptr %1, %add.ptr.i.i
  br i1 %cmp3.i.i.i, label %for.body.i.i.i, label %_ZNSt11_Deque_baseIhSaIhEE16_M_destroy_nodesEPPhS3_.exit.i.i

for.body.i.i.i:                                   ; preds = %if.then.i.i, %for.body.i.i.i
  %__n.04.i.i.i = phi ptr [ %incdec.ptr.i.i.i, %for.body.i.i.i ], [ %1, %if.then.i.i ]
  %3 = load ptr, ptr %__n.04.i.i.i, align 8
  tail call void @_ZdlPv(ptr noundef %3) #14
  %incdec.ptr.i.i.i = getelementptr inbounds i8, ptr %__n.04.i.i.i, i64 8
  %cmp.i.i.i = icmp ult ptr %__n.04.i.i.i, %2
  br i1 %cmp.i.i.i, label %for.body.i.i.i, label %_ZNSt11_Deque_baseIhSaIhEE16_M_destroy_nodesEPPhS3_.exit.loopexit.i.i, !llvm.loop !5

_ZNSt11_Deque_baseIhSaIhEE16_M_destroy_nodesEPPhS3_.exit.loopexit.i.i: ; preds = %for.body.i.i.i
  %.pre.i.i = load ptr, ptr %packets_entropy_, align 8
  br label %_ZNSt11_Deque_baseIhSaIhEE16_M_destroy_nodesEPPhS3_.exit.i.i

_ZNSt11_Deque_baseIhSaIhEE16_M_destroy_nodesEPPhS3_.exit.i.i: ; preds = %_ZNSt11_Deque_baseIhSaIhEE16_M_destroy_nodesEPPhS3_.exit.loopexit.i.i, %if.then.i.i
  %4 = phi ptr [ %.pre.i.i, %_ZNSt11_Deque_baseIhSaIhEE16_M_destroy_nodesEPPhS3_.exit.loopexit.i.i ], [ %0, %if.then.i.i ]
  tail call void @_ZdlPv(ptr noundef %4) #14
  br label %_ZNSt5dequeIhSaIhEED2Ev.exit

_ZNSt5dequeIhSaIhEED2Ev.exit:                     ; preds = %entry, %_ZNSt11_Deque_baseIhSaIhEE16_M_destroy_nodesEPPhS3_.exit.i.i
  ret void
}